target datalayout = "e-m:e-p270:32:32-p271:32:32-p272:64:64-i64:64-i128:128-f80:128-n8:16:32:64-S128"
target triple = "x86_64-pc-linux-gnu"

@.str = private unnamed_addr constant [30 x i8] c"../openssl/test/memleaktest.c\00", align 1
@.str.1 = private unnamed_addr constant [5 x i8] c"lost\00", align 1
@.str.2 = private unnamed_addr constant [3 x i8] c"ab\00", align 1
@.str.3 = private unnamed_addr constant [7 x i8] c"freeit\00", align 1

; Function Attrs: nounwind uwtable
define dso_local i32 @main(i32 noundef %0, ptr noundef %1) #0 {
  %3 = alloca i32, align 4
  %4 = alloca i32, align 4
  %5 = alloca ptr, align 8
  %6 = alloca i32, align 4
  %7 = alloca ptr, align 8
  %8 = alloca i32, align 4
  store i32 0, ptr %3, align 4
  store i32 %0, ptr %4, align 4, !tbaa !4
  store ptr %1, ptr %5, align 8, !tbaa !8
  call void @llvm.lifetime.start.p0(i64 4, ptr %6) #5
  store i32 1, ptr %6, align 4, !tbaa !4
  call void @llvm.lifetime.start.p0(i64 8, ptr %7) #5
  %9 = call noalias ptr @CRYPTO_malloc(i64 noundef 3, ptr noundef @.str, i32 noundef 49)
  store volatile ptr %9, ptr %7, align 8, !tbaa !11
  %10 = load volatile ptr, ptr %7, align 8, !tbaa !11
  %11 = call i32 @test_ptr(ptr noundef @.str, i32 noundef 50, ptr noundef @.str.1, ptr noundef %10)
  %12 = icmp ne i32 %11, 0
  br i1 %12, label %14, label %13

13:                                               ; preds = %2
  store i32 1, ptr %3, align 4
  store i32 1, ptr %8, align 4
  br label %31

14:                                               ; preds = %2
  %15 = load volatile ptr, ptr %7, align 8, !tbaa !11
  %16 = call ptr @strcpy(ptr noundef %15, ptr noundef @.str.2) #5
  %17 = load ptr, ptr %5, align 8, !tbaa !8
  %18 = getelementptr inbounds ptr, ptr %17, i64 1
  %19 = load ptr, ptr %18, align 8, !tbaa !11
  %20 = icmp ne ptr %19, null
  br i1 %20, label %21, label %29

21:                                               ; preds = %14
  %22 = load ptr, ptr %5, align 8, !tbaa !8
  %23 = getelementptr inbounds ptr, ptr %22, i64 1
  %24 = load ptr, ptr %23, align 8, !tbaa !11
  %25 = call i32 @strcmp(ptr noundef %24, ptr noundef @.str.3) #6
  %26 = icmp eq i32 %25, 0
  br i1 %26, label %27, label %29

27:                                               ; preds = %21
  %28 = load volatile ptr, ptr %7, align 8, !tbaa !11
  call void @CRYPTO_free(ptr noundef %28, ptr noundef @.str, i32 noundef 56)
  store i32 0, ptr %6, align 4, !tbaa !4
  br label %29

29:                                               ; preds = %27, %21, %14
  store volatile ptr null, ptr %7, align 8, !tbaa !11
  %30 = load i32, ptr %6, align 4, !tbaa !4
  store i32 %30, ptr %3, align 4
  store i32 1, ptr %8, align 4
  br label %31

31:                                               ; preds = %29, %13
  call void @llvm.lifetime.end.p0(i64 8, ptr %7) #5
  call void @llvm.lifetime.end.p0(i64 4, ptr %6) #5
  %32 = load i32, ptr %3, align 4
  ret i32 %32
}

; Function Attrs: nocallback nofree nosync nounwind willreturn memory(argmem: readwrite)
declare void @llvm.lifetime.start.p0(i64 immarg, ptr captures(none)) #1

declare noalias ptr @CRYPTO_malloc(i64 noundef, ptr noundef, i32 noundef) #2

declare i32 @test_ptr(ptr noundef, i32 noundef, ptr noundef, ptr noundef) #2

; Function Attrs: nounwind
declare ptr @strcpy(ptr noundef, ptr noundef) #3

; Function Attrs: nounwind willreturn memory(read)
declare i32 @strcmp(ptr noundef, ptr noundef) #4

declare void @CRYPTO_free(ptr noundef, ptr noundef, i32 noundef) #2

; Function Attrs: nocallback nofree nosync nounwind willreturn memory(argmem: readwrite)
declare void @llvm.lifetime.end.p0(i64 immarg, ptr captures(none)) #1


!llvm.module.flags = !{!0, !1, !2, !3}

!0 = !{i32 1, !"wchar_size", i32 4}
!1 = !{i32 8, !"PIC Level", i32 2}
!2 = !{i32 7, !"PIE Level", i32 2}
!3 = !{i32 7, !"uwtable", i32 2}
!4 = !{!5, !5, i64 0}
!5 = !{!"int", !6, i64 0}
!6 = !{!"omnipotent char", !7, i64 0}
!7 = !{!"Simple C/C++ TBAA"}
!8 = !{!9, !9, i64 0}
!9 = !{!"p2 omnipotent char", !10, i64 0}
!10 = !{!"any pointer", !6, i64 0}
!11 = !{!12, !12, i64 0}
!12 = !{!"p1 omnipotent char", !10, i64 0}
